Certificate:
    Data:
        Version: 3 (0x2)
        Serial Number: 1 (0x1)
    Signature Algorithm: sha256WithRSAEncryption
        Issuer: CN=devcert
        Validity
            Not Before: Feb 27 21:50:59 2019 GMT
            Not After : Apr 28 21:50:59 2038 GMT
        Subject: CN=localhost
        Subject Public Key Info:
            Public Key Algorithm: rsaEncryption
                Public-Key: (2048 bit)
                Modulus:
                    00:ae:18:cd:25:5c:61:80:83:95:f3:4c:90:1a:6b:
                    1b:5f:90:61:28:2d:19:1d:e9:d8:20:d1:6c:08:08:
                    eb:0c:d2:4a:93:44:50:55:ea:d8:60:52:c7:de:94:
                    6d:39:d0:91:03:cd:ef:9f:67:67:f1:a8:87:b4:cb:
                    59:0f:2e:80:ca:94:d8:ad:db:96:9f:9b:7a:96:70:
                    19:22:f0:12:35:35:6b:87:59:3d:38:d9:32:7f:65:
                    91:72:45:f1:ae:ab:df:0e:72:0f:36:f4:e2:70:c7:
                    b8:33:17:a3:44:78:18:a8:84:b7:b4:c0:77:c6:65:
                    00:14:e9:0a:89:52:e2:06:63:fe:87:b6:52:29:9a:
                    cf:73:bf:9e:ed:16:fd:57:68:b7:a8:32:05:1a:11:
                    d5:54:3a:df:b6:fb:b1:ea:77:c0:25:f7:74:96:3b:
                    f4:b7:b2:37:76:d3:16:1e:a1:4d:58:44:3b:0b:1f:
                    39:d3:49:12:cb:eb:92:9b:31:db:5c:85:e7:bb:5c:
                    14:c0:36:bc:c4:36:92:69:ce:e9:30:f7:b2:0a:8f:
                    2d:40:e0:66:52:fa:f5:60:7c:dc:12:73:bb:9b:b0:
                    75:a5:1b:63:12:c0:89:11:25:b6:f2:5c:82:d7:89:
                    f6:ef:f1:cd:f0:b4:ed:0c:33:23:67:3d:d4:85:46:
                    50:ed
                Exponent: 65537 (0x10001)
        X509v3 extensions:
            X509v3 Basic Constraints: critical
                CA:FALSE
            X509v3 Subject Key Identifier: 
                CD:6E:9B:59:F5:82:3D:8F:A4:28:8A:CF:A1:D5:DB:E7:48:B1:2A:E2
            X509v3 Authority Key Identifier: 
                keyid:69:E9:23:0B:DF:92:E4:8A:6E:26:54:4D:41:F9:2B:EB:D0:A2:9B:06
                DirName:/CN=devcert
                serial:D8:46:67:B3:B5:50:74:A6

            X509v3 Key Usage: critical
                Digital Signature, Key Encipherment
            X509v3 Extended Key Usage: 
                TLS Web Server Authentication
            X509v3 Subject Alternative Name: 
                DNS:*.localhost, DNS:localhost
    Signature Algorithm: sha256WithRSAEncryption
         52:5f:a1:de:91:f6:6b:db:e4:6a:80:af:12:b8:99:45:96:d6:
         77:53:85:5b:90:c3:04:92:b5:46:b3:38:dd:9d:df:3d:99:bf:
         28:bf:22:19:1c:33:7e:4b:18:2a:dd:d4:8d:11:e2:fb:24:16:
         96:69:bf:7f:46:4e:41:e9:da:ae:9c:71:11:ba:bf:7a:2f:93:
         96:4f:fb:55:0e:ab:45:3d:22:f7:f7:53:85:66:f5:8a:b4:43:
         78:a3:5f:71:42:c1:70:a9:08:eb:23:59:fa:48:d7:f9:f4:02:
         f3:6a:11:2e:54:98:df:72:65:cd:93:5e:98:50:f4:5f:0c:c2:
         81:6f:c6:6b:fa:1b:02:41:c3:73:4e:c4:8b:42:d8:0f:f8:83:
         2f:72:59:57:a0:a7:8f:54:dd:37:9f:fc:9b:66:d8:f7:8e:d7:
         1f:86:a6:c7:17:2b:4a:74:fa:79:7d:3b:e0:fe:c4:b1:32:29:
         79:28:8f:84:08:29:64:74:49:ea:c6:2a:95:92:40:cd:f7:f9:
         0f:ca:94:b3:79:99:5b:86:a1:3a:5d:36:f7:61:9d:13:e4:8f:
         30:7e:f2:eb:4c:c5:6b:8a:22:40:75:cc:1c:05:28:3d:31:7a:
         6e:77:b1:be:4d:06:19:b1:f3:16:c8:d4:73:92:6a:23:05:8e:
         41:09:e0:55
-----BEGIN CERTIFICATE-----
MIIDXjCCAkagAwIBAgIBATANBgkqhkiG9w0BAQsFADASMRAwDgYDVQQDDAdkZXZj
ZXJ0MB4XDTE5MDIyNzIxNTA1OVoXDTM4MDQyODIxNTA1OVowFDESMBAGA1UEAwwJ
bG9jYWxob3N0MIIBIjANBgkqhkiG9w0BAQEFAAOCAQ8AMIIBCgKCAQEArhjNJVxh
gIOV80yQGmsbX5BhKC0ZHenYINFsCAjrDNJKk0RQVerYYFLH3pRtOdCRA83vn2dn
8aiHtMtZDy6AypTYrduWn5t6lnAZIvASNTVrh1k9ONkyf2WRckXxrqvfDnIPNvTi
cMe4MxejRHgYqIS3tMB3xmUAFOkKiVLiBmP+h7ZSKZrPc7+e7Rb9V2i3qDIFGhHV
VDrftvux6nfAJfd0ljv0t7I3dtMWHqFNWEQ7Cx8500kSy+uSmzHbXIXnu1wUwDa8
xDaSac7pMPeyCo8tQOBmUvr1YHzcEnO7m7B1pRtjEsCJESW28lyC14n27/HN8LTt
DDMjZz3UhUZQ7QIDAQABo4G8MIG5MAwGA1UdEwEB/wQCMAAwHQYDVR0OBBYEFM1u
m1n1gj2PpCiKz6HV2+dIsSriMEIGA1UdIwQ7MDmAFGnpIwvfkuSKbiZUTUH5K+vQ
opsGoRakFDASMRAwDgYDVQQDDAdkZXZjZXJ0ggkA2EZns7VQdKYwDgYDVR0PAQH/
BAQDAgWgMBMGA1UdJQQMMAoGCCsGAQUFBwMBMCEGA1UdEQQaMBiCCyoubG9jYWxo
b3N0gglsb2NhbGhvc3QwDQYJKoZIhvcNAQELBQADggEBAFJfod6R9mvb5GqArxK4
mUWW1ndThVuQwwSStUazON2d3z2Zvyi/IhkcM35LGCrd1I0R4vskFpZpv39GTkHp
2q6ccRG6v3ovk5ZP+1UOq0U9Ivf3U4Vm9Yq0Q3ijX3FCwXCpCOsjWfpI1/n0AvNq
ES5UmN9yZc2TXphQ9F8MwoFvxmv6GwJBw3NOxItC2A/4gy9yWVegp49U3Tef/Jtm
2PeO1x+GpscXK0p0+nl9O+D+xLEyKXkoj4QIKWR0SerGKpWSQM33+Q/KlLN5mVuG
oTpdNvdhnRPkjzB+8utMxWuKIkB1zBwFKD0xem53sb5NBhmx8xbI1HOSaiMFjkEJ
4FU=
-----END CERTIFICATE-----
